target datalayout = "e-m:e-p270:32:32-p271:32:32-p272:64:64-i64:64-i128:128-f80:128-n8:16:32:64-S128"
target triple = "x86_64-unknown-linux-gnu"

%"class.std::basic_string_view" = type { i64, ptr }
%"class.absl::TimeZone" = type { %"class.absl::time_internal::cctz::time_zone" }
%"class.absl::time_internal::cctz::time_zone" = type { ptr }

@_ZN4absl12RFC3339_fullE = dso_local constant [25 x i8] c"%Y-%m-%d%ET%H:%M:%E*S%Ez\00", align 16

; Function Attrs: mustprogress nounwind uwtable
define linkonce_odr dso_local void @_ZN4absl8TimeZoneC2ENS_13time_internal4cctz9time_zoneE(ptr noundef nonnull align 8 dereferenceable(8) %this, ptr %tz.coerce) unnamed_addr #6 comdat align 2 {
entry:
  %tz = alloca %"class.absl::time_internal::cctz::time_zone", align 8
  %this.addr = alloca ptr, align 8
  %coerce.dive = getelementptr inbounds %"class.absl::time_internal::cctz::time_zone", ptr %tz, i32 0, i32 0
  store ptr %tz.coerce, ptr %coerce.dive, align 8
  store ptr %this, ptr %this.addr, align 8
  %this1 = load ptr, ptr %this.addr, align 8
  %cz_ = getelementptr inbounds %"class.absl::TimeZone", ptr %this1, i32 0, i32 0
  call void @llvm.memcpy.p0.p0.i64(ptr align 8 %cz_, ptr align 8 %tz, i64 8, i1 false)
  ret void
}

; Function Attrs: noreturn nounwind uwtable
define linkonce_odr hidden void @__clang_call_terminate(ptr noundef %0) #7 comdat {
  %2 = call ptr @__cxa_begin_catch(ptr %0) #11
  call void @_ZSt9terminatev() #14
  unreachable
}

; Function Attrs: mustprogress nounwind uwtable
define linkonce_odr dso_local noundef i64 @_ZNSt11char_traitsIcE6lengthEPKc(ptr noundef %__s) #6 comdat align 2 {
entry:
  %__s.addr = alloca ptr, align 8
  store ptr %__s, ptr %__s.addr, align 8
  %0 = load ptr, ptr %__s.addr, align 8
  %call = call i64 @strlen(ptr noundef %0) #11
  ret i64 %call
}

; Function Attrs: mustprogress uwtable
define linkonce_odr dso_local ptr @_ZN4absl11UTCTimeZoneEv() #4 comdat {
entry:
  %retval = alloca %"class.absl::TimeZone", align 8
  %agg.tmp = alloca %"class.absl::time_internal::cctz::time_zone", align 8
  %call = call ptr @_ZN4absl13time_internal4cctz13utc_time_zoneEv()
  %coerce.dive = getelementptr inbounds %"class.absl::time_internal::cctz::time_zone", ptr %agg.tmp, i32 0, i32 0
  store ptr %call, ptr %coerce.dive, align 8
  %coerce.dive1 = getelementptr inbounds %"class.absl::time_internal::cctz::time_zone", ptr %agg.tmp, i32 0, i32 0
  %0 = load ptr, ptr %coerce.dive1, align 8
  call void @_ZN4absl8TimeZoneC2ENS_13time_internal4cctz9time_zoneE(ptr noundef nonnull align 8 dereferenceable(8) %retval, ptr %0)
  %coerce.dive2 = getelementptr inbounds %"class.absl::TimeZone", ptr %retval, i32 0, i32 0
  %coerce.dive3 = getelementptr inbounds %"class.absl::time_internal::cctz::time_zone", ptr %coerce.dive2, i32 0, i32 0
  %1 = load ptr, ptr %coerce.dive3, align 8
  ret ptr %1
}

; Function Attrs: mustprogress nounwind uwtable
define linkonce_odr dso_local void @_ZNSt17basic_string_viewIcSt11char_traitsIcEEC2EPKc(ptr noundef nonnull align 8 dereferenceable(16) %this, ptr noundef nonnull %__str) unnamed_addr #6 comdat align 2 personality ptr @__gxx_personality_v0 {
entry:
  %this.addr = alloca ptr, align 8
  %__str.addr = alloca ptr, align 8
  store ptr %this, ptr %this.addr, align 8
  store ptr %__str, ptr %__str.addr, align 8
  %this1 = load ptr, ptr %this.addr, align 8
  %_M_len = getelementptr inbounds %"class.std::basic_string_view", ptr %this1, i32 0, i32 0
  %0 = load ptr, ptr %__str.addr, align 8
  %call = invoke noundef i64 @_ZNSt11char_traitsIcE6lengthEPKc(ptr noundef %0)
          to label %invoke.cont unwind label %terminate.lpad

invoke.cont:                                      ; preds = %entry
  store i64 %call, ptr %_M_len, align 8
  %_M_str = getelementptr inbounds %"class.std::basic_string_view", ptr %this1, i32 0, i32 1
  %1 = load ptr, ptr %__str.addr, align 8
  store ptr %1, ptr %_M_str, align 8
  ret void

terminate.lpad:                                   ; preds = %entry
  %2 = landingpad { ptr, i32 }
          catch ptr null
  %3 = extractvalue { ptr, i32 } %2, 0
  call void @__clang_call_terminate(ptr %3) #14
  unreachable
}

; Function Attrs: mustprogress uwtable
define dso_local noundef zeroext i1 @_ZN4absl9ParseFlagERKNSt7__cxx1112basic_stringIcSt11char_traitsIcESaIcEEEPNS_4TimeEPS5_(ptr noundef nonnull align 8 dereferenceable(32) %text, ptr noundef %t, ptr noundef %error) #4 {
entry:
  %text.addr = alloca ptr, align 8
  %t.addr = alloca ptr, align 8
  %error.addr = alloca ptr, align 8
  %agg.tmp = alloca %"class.std::basic_string_view", align 8
  %agg.tmp1 = alloca %"class.std::basic_string_view", align 8
  %agg.tmp2 = alloca %"class.absl::TimeZone", align 8
  store ptr %text, ptr %text.addr, align 8
  store ptr %t, ptr %t.addr, align 8
  store ptr %error, ptr %error.addr, align 8
  call void @_ZNSt17basic_string_viewIcSt11char_traitsIcEEC2EPKc(ptr noundef nonnull align 8 dereferenceable(16) %agg.tmp, ptr noundef @_ZN4absl12RFC3339_fullE) #11
  %0 = load ptr, ptr %text.addr, align 8
  %call = call { i64, ptr } @_ZNKSt7__cxx1112basic_stringIcSt11char_traitsIcESaIcEEcvSt17basic_string_viewIcS2_EEv(ptr noundef nonnull align 8 dereferenceable(32) %0) #11
  %1 = getelementptr inbounds { i64, ptr }, ptr %agg.tmp1, i32 0, i32 0
  %2 = extractvalue { i64, ptr } %call, 0
  store i64 %2, ptr %1, align 8
  %3 = getelementptr inbounds { i64, ptr }, ptr %agg.tmp1, i32 0, i32 1
  %4 = extractvalue { i64, ptr } %call, 1
  store ptr %4, ptr %3, align 8
  %call3 = call ptr @_ZN4absl11UTCTimeZoneEv()
  %coerce.dive = getelementptr inbounds %"class.absl::TimeZone", ptr %agg.tmp2, i32 0, i32 0
  %coerce.dive4 = getelementptr inbounds %"class.absl::time_internal::cctz::time_zone", ptr %coerce.dive, i32 0, i32 0
  store ptr %call3, ptr %coerce.dive4, align 8
  %5 = load ptr, ptr %t.addr, align 8
  %6 = load ptr, ptr %error.addr, align 8
  %7 = getelementptr inbounds { i64, ptr }, ptr %agg.tmp, i32 0, i32 0
  %8 = load i64, ptr %7, align 8
  %9 = getelementptr inbounds { i64, ptr }, ptr %agg.tmp, i32 0, i32 1
  %10 = load ptr, ptr %9, align 8
  %11 = getelementptr inbounds { i64, ptr }, ptr %agg.tmp1, i32 0, i32 0
  %12 = load i64, ptr %11, align 8
  %13 = getelementptr inbounds { i64, ptr }, ptr %agg.tmp1, i32 0, i32 1
  %14 = load ptr, ptr %13, align 8
  %coerce.dive5 = getelementptr inbounds %"class.absl::TimeZone", ptr %agg.tmp2, i32 0, i32 0
  %coerce.dive6 = getelementptr inbounds %"class.absl::time_internal::cctz::time_zone", ptr %coerce.dive5, i32 0, i32 0
  %15 = load ptr, ptr %coerce.dive6, align 8
  %call7 = call noundef zeroext i1 @_ZN4absl9ParseTimeESt17basic_string_viewIcSt11char_traitsIcEES3_NS_8TimeZoneEPNS_4TimeEPNSt7__cxx1112basic_stringIcS2_SaIcEEE(i64 %8, ptr %10, i64 %12, ptr %14, ptr %15, ptr noundef %5, ptr noundef %6)
  ret i1 %call7
}