; Function Attrs: mustprogress uwtable
define dso_local noundef zeroext i1 @_ZN4absl9ParseFlagERKNSt7__cxx1112basic_stringIcSt11char_traitsIcESaIcEEEPNS_4TimeEPS5_(ptr noundef nonnull align 8 dereferenceable(32) %text, ptr noundef writeonly captures(none) %t, ptr noundef %error) local_unnamed_addr #4 personality ptr @__gxx_personality_v0 {
entry:
  %call = tail call { i64, ptr } @_ZNKSt7__cxx1112basic_stringIcSt11char_traitsIcESaIcEEcvSt17basic_string_viewIcS2_EEv(ptr noundef nonnull align 8 dereferenceable(32) %text) #11
  %0 = extractvalue { i64, ptr } %call, 0
  %1 = extractvalue { i64, ptr } %call, 1
  %call.i = tail call ptr @_ZN4absl13time_internal4cctz13utc_time_zoneEv()
  %call7 = tail call noundef zeroext i1 @_ZN4absl9ParseTimeESt17basic_string_viewIcSt11char_traitsIcEES3_NS_8TimeZoneEPNS_4TimeEPNSt7__cxx1112basic_stringIcS2_SaIcEEE(i64 24, ptr nonnull @_ZN4absl12RFC3339_fullE, i64 %0, ptr %1, ptr %call.i, ptr noundef %t, ptr noundef %error)
  ret i1 %call7
}